; ModuleID = '21/611.cpp'
source_filename = "21/611.cpp"
target datalayout = "e-m:e-p270:32:32-p271:32:32-p272:64:64-i64:64-f80:128-n8:16:32:64-S128"
target triple = "x86_64-pc-linux-gnu"

%"class.std::ios_base::Init" = type { i8 }
%"class.std::basic_istream" = type { i32 (...)**, i64, %"class.std::basic_ios" }
%"class.std::basic_ios" = type { %"class.std::ios_base", %"class.std::basic_ostream"*, i8, i8, %"class.std::basic_streambuf"*, %"class.std::ctype"*, %"class.std::num_put"*, %"class.std::num_get"* }
%"class.std::ios_base" = type { i32 (...)**, i64, i64, i32, i32, i32, %"struct.std::ios_base::_Callback_list"*, %"struct.std::ios_base::_Words", [8 x %"struct.std::ios_base::_Words"], i32, %"struct.std::ios_base::_Words"*, %"class.std::locale" }
%"struct.std::ios_base::_Callback_list" = type { %"struct.std::ios_base::_Callback_list"*, void (i32, %"class.std::ios_base"*, i32)*, i32, i32 }
%"struct.std::ios_base::_Words" = type { i8*, i64 }
%"class.std::locale" = type { %"class.std::locale::_Impl"* }
%"class.std::locale::_Impl" = type { i32, %"class.std::locale::facet"**, i64, %"class.std::locale::facet"**, i8** }
%"class.std::locale::facet" = type <{ i32 (...)**, i32, [4 x i8] }>
%"class.std::basic_ostream" = type { i32 (...)**, %"class.std::basic_ios" }
%"class.std::basic_streambuf" = type { i32 (...)**, i8*, i8*, i8*, i8*, i8*, i8*, %"class.std::locale" }
%"class.std::ctype" = type <{ %"class.std::locale::facet.base", [4 x i8], %struct.__locale_struct*, i8, [7 x i8], i32*, i32*, i16*, i8, [256 x i8], [256 x i8], i8, [6 x i8] }>
%"class.std::locale::facet.base" = type <{ i32 (...)**, i32 }>
%struct.__locale_struct = type { [13 x %struct.__locale_data*], i16*, i32*, i32*, [13 x i8*] }
%struct.__locale_data = type opaque
%"class.std::num_put" = type { %"class.std::locale::facet.base", [4 x i8] }
%"class.std::num_get" = type { %"class.std::locale::facet.base", [4 x i8] }

$_ZSt3absf = comdat any

@_ZStL8__ioinit = internal global %"class.std::ios_base::Init" zeroinitializer, align 1
@__dso_handle = external hidden global i8
@_ZSt3cin = external dso_local global %"class.std::basic_istream", align 8
@_ZSt4cout = external dso_local global %"class.std::basic_ostream", align 8
@.str = private unnamed_addr constant [2 x i8] c",\00", align 1
@llvm.global_ctors = appending global [1 x { i32, void ()*, i8* }] [{ i32, void ()*, i8* } { i32 65535, void ()* @_GLOBAL__sub_I_611.cpp, i8* null }]

; Function Attrs: noinline uwtable
define internal void @__cxx_global_var_init() #0 section ".text.startup" {
  call void @_ZNSt8ios_base4InitC1Ev(%"class.std::ios_base::Init"* @_ZStL8__ioinit)
  %1 = call i32 @__cxa_atexit(void (i8*)* bitcast (void (%"class.std::ios_base::Init"*)* @_ZNSt8ios_base4InitD1Ev to void (i8*)*), i8* getelementptr inbounds (%"class.std::ios_base::Init", %"class.std::ios_base::Init"* @_ZStL8__ioinit, i32 0, i32 0), i8* @__dso_handle) #3
  ret void
}

declare dso_local void @_ZNSt8ios_base4InitC1Ev(%"class.std::ios_base::Init"*) unnamed_addr #1

; Function Attrs: nounwind
declare dso_local void @_ZNSt8ios_base4InitD1Ev(%"class.std::ios_base::Init"*) unnamed_addr #2

; Function Attrs: nounwind
declare dso_local i32 @__cxa_atexit(void (i8*)*, i8*, i8*) #3

; Function Attrs: noinline norecurse uwtable
define dso_local i32 @main() #4 {
  %1 = alloca i32, align 4
  %2 = alloca [300 x i32], align 16
  %3 = alloca i32, align 4
  %4 = alloca i32, align 4
  %5 = alloca i32, align 4
  %6 = alloca i32, align 4
  %7 = alloca i32, align 4
  %8 = alloca i32, align 4
  %9 = alloca float, align 4
  %10 = alloca float, align 4
  store i32 0, i32* %1, align 4
  store i32 0, i32* %6, align 4
  store i32 0, i32* %8, align 4
  %11 = call dereferenceable(280) %"class.std::basic_istream"* @_ZNSirsERi(%"class.std::basic_istream"* @_ZSt3cin, i32* dereferenceable(4) %3)
  store i32 0, i32* %4, align 4
  br label %12

12:                                               ; preds = %28, %0
  %13 = load i32, i32* %4, align 4
  %14 = load i32, i32* %3, align 4
  %15 = sub nsw i32 %14, 1
  %16 = icmp sle i32 %13, %15
  br i1 %16, label %17, label %31

17:                                               ; preds = %12
  %18 = load i32, i32* %4, align 4
  %19 = sext i32 %18 to i64
  %20 = getelementptr inbounds [300 x i32], [300 x i32]* %2, i64 0, i64 %19
  %21 = call dereferenceable(280) %"class.std::basic_istream"* @_ZNSirsERi(%"class.std::basic_istream"* @_ZSt3cin, i32* dereferenceable(4) %20)
  %22 = load i32, i32* %4, align 4
  %23 = sext i32 %22 to i64
  %24 = getelementptr inbounds [300 x i32], [300 x i32]* %2, i64 0, i64 %23
  %25 = load i32, i32* %24, align 4
  %26 = load i32, i32* %6, align 4
  %27 = add nsw i32 %26, %25
  store i32 %27, i32* %6, align 4
  br label %28

28:                                               ; preds = %17
  %29 = load i32, i32* %4, align 4
  %30 = add nsw i32 %29, 1
  store i32 %30, i32* %4, align 4
  br label %12

31:                                               ; preds = %12
  %32 = load i32, i32* %6, align 4
  %33 = sitofp i32 %32 to float
  %34 = load i32, i32* %3, align 4
  %35 = sitofp i32 %34 to float
  %36 = fdiv float %33, %35
  store float %36, float* %9, align 4
  %37 = load i32, i32* %3, align 4
  %38 = sub nsw i32 %37, 1
  store i32 %38, i32* %4, align 4
  br label %39

39:                                               ; preds = %82, %31
  %40 = load i32, i32* %4, align 4
  %41 = icmp sge i32 %40, 1
  br i1 %41, label %42, label %85

42:                                               ; preds = %39
  store i32 0, i32* %5, align 4
  br label %43

43:                                               ; preds = %78, %42
  %44 = load i32, i32* %5, align 4
  %45 = load i32, i32* %4, align 4
  %46 = sub nsw i32 %45, 1
  %47 = icmp sle i32 %44, %46
  br i1 %47, label %48, label %81

48:                                               ; preds = %43
  %49 = load i32, i32* %5, align 4
  %50 = sext i32 %49 to i64
  %51 = getelementptr inbounds [300 x i32], [300 x i32]* %2, i64 0, i64 %50
  %52 = load i32, i32* %51, align 4
  %53 = load i32, i32* %5, align 4
  %54 = add nsw i32 %53, 1
  %55 = sext i32 %54 to i64
  %56 = getelementptr inbounds [300 x i32], [300 x i32]* %2, i64 0, i64 %55
  %57 = load i32, i32* %56, align 4
  %58 = icmp sgt i32 %52, %57
  br i1 %58, label %59, label %77

59:                                               ; preds = %48
  %60 = load i32, i32* %5, align 4
  %61 = add nsw i32 %60, 1
  %62 = sext i32 %61 to i64
  %63 = getelementptr inbounds [300 x i32], [300 x i32]* %2, i64 0, i64 %62
  %64 = load i32, i32* %63, align 4
  store i32 %64, i32* %7, align 4
  %65 = load i32, i32* %5, align 4
  %66 = sext i32 %65 to i64
  %67 = getelementptr inbounds [300 x i32], [300 x i32]* %2, i64 0, i64 %66
  %68 = load i32, i32* %67, align 4
  %69 = load i32, i32* %5, align 4
  %70 = add nsw i32 %69, 1
  %71 = sext i32 %70 to i64
  %72 = getelementptr inbounds [300 x i32], [300 x i32]* %2, i64 0, i64 %71
  store i32 %68, i32* %72, align 4
  %73 = load i32, i32* %7, align 4
  %74 = load i32, i32* %5, align 4
  %75 = sext i32 %74 to i64
  %76 = getelementptr inbounds [300 x i32], [300 x i32]* %2, i64 0, i64 %75
  store i32 %73, i32* %76, align 4
  br label %77

77:                                               ; preds = %59, %48
  br label %78

78:                                               ; preds = %77
  %79 = load i32, i32* %5, align 4
  %80 = add nsw i32 %79, 1
  store i32 %80, i32* %5, align 4
  br label %43

81:                                               ; preds = %43
  br label %82

82:                                               ; preds = %81
  %83 = load i32, i32* %4, align 4
  %84 = add nsw i32 %83, -1
  store i32 %84, i32* %4, align 4
  br label %39

85:                                               ; preds = %39
  store i32 0, i32* %4, align 4
  br label %86

86:                                               ; preds = %112, %85
  %87 = load i32, i32* %4, align 4
  %88 = load i32, i32* %3, align 4
  %89 = sub nsw i32 %88, 1
  %90 = icmp sle i32 %87, %89
  br i1 %90, label %91, label %115

91:                                               ; preds = %86
  %92 = load i32, i32* %4, align 4
  %93 = sext i32 %92 to i64
  %94 = getelementptr inbounds [300 x i32], [300 x i32]* %2, i64 0, i64 %93
  %95 = load i32, i32* %94, align 4
  %96 = sitofp i32 %95 to float
  %97 = load float, float* %9, align 4
  %98 = fsub float %96, %97
  %99 = call float @_ZSt3absf(float %98)
  %100 = load float, float* %10, align 4
  %101 = fcmp ogt float %99, %100
  br i1 %101, label %102, label %111

102:                                              ; preds = %91
  %103 = load i32, i32* %4, align 4
  %104 = sext i32 %103 to i64
  %105 = getelementptr inbounds [300 x i32], [300 x i32]* %2, i64 0, i64 %104
  %106 = load i32, i32* %105, align 4
  %107 = sitofp i32 %106 to float
  %108 = load float, float* %9, align 4
  %109 = fsub float %107, %108
  %110 = call float @_ZSt3absf(float %109)
  store float %110, float* %10, align 4
  br label %111

111:                                              ; preds = %102, %91
  br label %112

112:                                              ; preds = %111
  %113 = load i32, i32* %4, align 4
  %114 = add nsw i32 %113, 1
  store i32 %114, i32* %4, align 4
  br label %86

115:                                              ; preds = %86
  store i32 0, i32* %4, align 4
  br label %116

116:                                              ; preds = %158, %115
  %117 = load i32, i32* %4, align 4
  %118 = load i32, i32* %3, align 4
  %119 = sub nsw i32 %118, 1
  %120 = icmp sle i32 %117, %119
  br i1 %120, label %121, label %161

121:                                              ; preds = %116
  %122 = load i32, i32* %4, align 4
  %123 = sext i32 %122 to i64
  %124 = getelementptr inbounds [300 x i32], [300 x i32]* %2, i64 0, i64 %123
  %125 = load i32, i32* %124, align 4
  %126 = sitofp i32 %125 to float
  %127 = load float, float* %9, align 4
  %128 = fsub float %126, %127
  %129 = call float @_ZSt3absf(float %128)
  %130 = load float, float* %10, align 4
  %131 = fsub float %129, %130
  %132 = call float @_ZSt3absf(float %131)
  %133 = fpext float %132 to double
  %134 = fcmp olt double %133, 1.000000e-01
  br i1 %134, label %135, label %157

135:                                              ; preds = %121
  %136 = load i32, i32* %8, align 4
  %137 = add nsw i32 %136, 1
  store i32 %137, i32* %8, align 4
  %138 = load i32, i32* %8, align 4
  %139 = icmp eq i32 %138, 1
  br i1 %139, label %140, label %146

140:                                              ; preds = %135
  %141 = load i32, i32* %4, align 4
  %142 = sext i32 %141 to i64
  %143 = getelementptr inbounds [300 x i32], [300 x i32]* %2, i64 0, i64 %142
  %144 = load i32, i32* %143, align 4
  %145 = call dereferenceable(272) %"class.std::basic_ostream"* @_ZNSolsEi(%"class.std::basic_ostream"* @_ZSt4cout, i32 %144)
  br label %146

146:                                              ; preds = %140, %135
  %147 = load i32, i32* %8, align 4
  %148 = icmp sgt i32 %147, 1
  br i1 %148, label %149, label %156

149:                                              ; preds = %146
  %150 = call dereferenceable(272) %"class.std::basic_ostream"* @_ZStlsISt11char_traitsIcEERSt13basic_ostreamIcT_ES5_PKc(%"class.std::basic_ostream"* dereferenceable(272) @_ZSt4cout, i8* getelementptr inbounds ([2 x i8], [2 x i8]* @.str, i64 0, i64 0))
  %151 = load i32, i32* %4, align 4
  %152 = sext i32 %151 to i64
  %153 = getelementptr inbounds [300 x i32], [300 x i32]* %2, i64 0, i64 %152
  %154 = load i32, i32* %153, align 4
  %155 = call dereferenceable(272) %"class.std::basic_ostream"* @_ZNSolsEi(%"class.std::basic_ostream"* %150, i32 %154)
  br label %156

156:                                              ; preds = %149, %146
  br label %157

157:                                              ; preds = %156, %121
  br label %158

158:                                              ; preds = %157
  %159 = load i32, i32* %4, align 4
  %160 = add nsw i32 %159, 1
  store i32 %160, i32* %4, align 4
  br label %116

161:                                              ; preds = %116
  ret i32 0
}

declare dso_local dereferenceable(280) %"class.std::basic_istream"* @_ZNSirsERi(%"class.std::basic_istream"*, i32* dereferenceable(4)) #1

; Function Attrs: noinline nounwind uwtable
define linkonce_odr dso_local float @_ZSt3absf(float %0) #5 comdat {
  %2 = alloca float, align 4
  store float %0, float* %2, align 4
  %3 = load float, float* %2, align 4
  %4 = call float @llvm.fabs.f32(float %3)
  ret float %4
}

declare dso_local dereferenceable(272) %"class.std::basic_ostream"* @_ZNSolsEi(%"class.std::basic_ostream"*, i32) #1

declare dso_local dereferenceable(272) %"class.std::basic_ostream"* @_ZStlsISt11char_traitsIcEERSt13basic_ostreamIcT_ES5_PKc(%"class.std::basic_ostream"* dereferenceable(272), i8*) #1

; Function Attrs: nounwind readnone speculatable willreturn
declare float @llvm.fabs.f32(float) #6

; Function Attrs: noinline uwtable
define internal void @_GLOBAL__sub_I_611.cpp() #0 section ".text.startup" {
  call void @__cxx_global_var_init()
  ret void
}


!llvm.module.flags = !{!0}
!llvm.ident = !{!1}

!0 = !{i32 1, !"wchar_size", i32 4}
!1 = !{!"clang version 10.0.0-4ubuntu1 "}
